target datalayout = "e-m:e-p270:32:32-p271:32:32-p272:64:64-i64:64-i128:128-f80:128-n8:16:32:64-S128"
target triple = "x86_64-pc-linux-gnu"

@.str.58 = private unnamed_addr constant [2 x i8] c"\0A\00", align 1
@.str.70 = private unnamed_addr constant [31 x i8] c"MSF     X         Y         Z\0A\00", align 1
@.str.71 = private unnamed_addr constant [5 x i8] c" %c \00", align 1
@.str.72 = private unnamed_addr constant [7 x i8] c" %9.2e\00", align 1
@.str.73 = private unnamed_addr constant [4 x i8] c"%s\0A\00", align 1
@.str.74 = private unnamed_addr constant [8 x i8] c" (nm^2)\00", align 1
@.str.75 = private unnamed_addr constant [1 x i8] zeroinitializer, align 1
@.str.76 = private unnamed_addr constant [29 x i8] c"\0A             Eigenvectors\0A\0A\00", align 1
@.str.77 = private unnamed_addr constant [36 x i8] c"Eigv  %-8.2e %-8.2e %-8.2e (nm^2)\0A\0A\00", align 1
@.str.78 = private unnamed_addr constant [8 x i8] c"  %c   \00", align 1
@.str.79 = private unnamed_addr constant [8 x i8] c"%7.4f  \00", align 1

; Function Attrs: mustprogress uwtable
define internal void @_ZL9print_dirP8_IO_FILEPf(ptr noundef %0, ptr noundef %1) #0 {
  %3 = alloca ptr, align 8
  %4 = alloca ptr, align 8
  %5 = alloca [9 x float], align 16
  %6 = alloca [9 x float], align 16
  %7 = alloca [3 x float], align 4
  %8 = alloca i32, align 4
  %9 = alloca i32, align 4
  store ptr %0, ptr %3, align 8, !tbaa !48
  store ptr %1, ptr %4, align 8, !tbaa !12
  call void @llvm.lifetime.start.p0(i64 36, ptr %5) #16
  call void @llvm.lifetime.start.p0(i64 36, ptr %6) #16
  call void @llvm.lifetime.start.p0(i64 12, ptr %7) #16
  call void @llvm.lifetime.start.p0(i64 4, ptr %8) #16
  call void @llvm.lifetime.start.p0(i64 4, ptr %9) #16
  %10 = load ptr, ptr %3, align 8, !tbaa !48
  %11 = call i32 (ptr, ptr, ...) @fprintf(ptr noundef %10, ptr noundef @.str.70) #16
  store i32 0, ptr %8, align 4, !tbaa !4
  br label %12

12:                                               ; preds = %45, %2
  %13 = load i32, ptr %8, align 4, !tbaa !4
  %14 = icmp slt i32 %13, 3
  br i1 %14, label %15, label %48

15:                                               ; preds = %12
  %16 = load ptr, ptr %3, align 8, !tbaa !48
  %17 = load i32, ptr %8, align 4, !tbaa !4
  %18 = add nsw i32 88, %17
  %19 = sub nsw i32 %18, 0
  %20 = call i32 (ptr, ptr, ...) @fprintf(ptr noundef %16, ptr noundef @.str.71, i32 noundef %19) #16
  store i32 0, ptr %9, align 4, !tbaa !4
  br label %21

21:                                               ; preds = %36, %15
  %22 = load i32, ptr %9, align 4, !tbaa !4
  %23 = icmp slt i32 %22, 3
  br i1 %23, label %24, label %39

24:                                               ; preds = %21
  %25 = load ptr, ptr %3, align 8, !tbaa !48
  %26 = load ptr, ptr %4, align 8, !tbaa !12
  %27 = load i32, ptr %9, align 4, !tbaa !4
  %28 = mul nsw i32 3, %27
  %29 = load i32, ptr %8, align 4, !tbaa !4
  %30 = add nsw i32 %28, %29
  %31 = sext i32 %30 to i64
  %32 = getelementptr inbounds float, ptr %26, i64 %31
  %33 = load float, ptr %32, align 4, !tbaa !14
  %34 = fpext float %33 to double
  %35 = call i32 (ptr, ptr, ...) @fprintf(ptr noundef %25, ptr noundef @.str.72, double noundef %34) #16
  br label %36

36:                                               ; preds = %24
  %37 = load i32, ptr %9, align 4, !tbaa !4
  %38 = add nsw i32 %37, 1
  store i32 %38, ptr %9, align 4, !tbaa !4
  br label %21, !llvm.loop !146

39:                                               ; preds = %21
  %40 = load ptr, ptr %3, align 8, !tbaa !48
  %41 = load i32, ptr %9, align 4, !tbaa !4
  %42 = icmp eq i32 %41, 3
  %43 = select i1 %42, ptr @.str.74, ptr @.str.75
  %44 = call i32 (ptr, ptr, ...) @fprintf(ptr noundef %40, ptr noundef @.str.73, ptr noundef %43) #16
  br label %45

45:                                               ; preds = %39
  %46 = load i32, ptr %8, align 4, !tbaa !4
  %47 = add nsw i32 %46, 1
  store i32 %47, ptr %8, align 4, !tbaa !4
  br label %12, !llvm.loop !147

48:                                               ; preds = %12
  store i32 0, ptr %9, align 4, !tbaa !4
  br label %49

49:                                               ; preds = %61, %48
  %50 = load i32, ptr %9, align 4, !tbaa !4
  %51 = icmp slt i32 %50, 9
  br i1 %51, label %52, label %64

52:                                               ; preds = %49
  %53 = load ptr, ptr %4, align 8, !tbaa !12
  %54 = load i32, ptr %9, align 4, !tbaa !4
  %55 = sext i32 %54 to i64
  %56 = getelementptr inbounds float, ptr %53, i64 %55
  %57 = load float, ptr %56, align 4, !tbaa !14
  %58 = load i32, ptr %9, align 4, !tbaa !4
  %59 = sext i32 %58 to i64
  %60 = getelementptr inbounds [9 x float], ptr %6, i64 0, i64 %59
  store float %57, ptr %60, align 4, !tbaa !14
  br label %61

61:                                               ; preds = %52
  %62 = load i32, ptr %9, align 4, !tbaa !4
  %63 = add nsw i32 %62, 1
  store i32 %63, ptr %9, align 4, !tbaa !4
  br label %49, !llvm.loop !148

64:                                               ; preds = %49
  %65 = getelementptr inbounds [9 x float], ptr %6, i64 0, i64 0
  %66 = getelementptr inbounds [3 x float], ptr %7, i64 0, i64 0
  %67 = getelementptr inbounds [9 x float], ptr %5, i64 0, i64 0
  call void @_Z11eigensolverPfiiiS_S_(ptr noundef %65, i32 noundef 3, i32 noundef 0, i32 noundef 3, ptr noundef %66, ptr noundef %67)
  %68 = load ptr, ptr %3, align 8, !tbaa !48
  %69 = call i32 (ptr, ptr, ...) @fprintf(ptr noundef %68, ptr noundef @.str.76) #16
  %70 = load ptr, ptr %3, align 8, !tbaa !48
  %71 = getelementptr inbounds [3 x float], ptr %7, i64 0, i64 2
  %72 = load float, ptr %71, align 4, !tbaa !14
  %73 = fpext float %72 to double
  %74 = getelementptr inbounds [3 x float], ptr %7, i64 0, i64 1
  %75 = load float, ptr %74, align 4, !tbaa !14
  %76 = fpext float %75 to double
  %77 = getelementptr inbounds [3 x float], ptr %7, i64 0, i64 0
  %78 = load float, ptr %77, align 4, !tbaa !14
  %79 = fpext float %78 to double
  %80 = call i32 (ptr, ptr, ...) @fprintf(ptr noundef %70, ptr noundef @.str.77, double noundef %73, double noundef %76, double noundef %79) #16
  store i32 0, ptr %8, align 4, !tbaa !4
  br label %81

81:                                               ; preds = %110, %64
  %82 = load i32, ptr %8, align 4, !tbaa !4
  %83 = icmp slt i32 %82, 3
  br i1 %83, label %84, label %113

84:                                               ; preds = %81
  %85 = load ptr, ptr %3, align 8, !tbaa !48
  %86 = load i32, ptr %8, align 4, !tbaa !4
  %87 = add nsw i32 88, %86
  %88 = sub nsw i32 %87, 0
  %89 = call i32 (ptr, ptr, ...) @fprintf(ptr noundef %85, ptr noundef @.str.78, i32 noundef %88) #16
  store i32 2, ptr %9, align 4, !tbaa !4
  br label %90

90:                                               ; preds = %104, %84
  %91 = load i32, ptr %9, align 4, !tbaa !4
  %92 = icmp sge i32 %91, 0
  br i1 %92, label %93, label %107

93:                                               ; preds = %90
  %94 = load ptr, ptr %3, align 8, !tbaa !48
  %95 = load i32, ptr %9, align 4, !tbaa !4
  %96 = mul nsw i32 3, %95
  %97 = load i32, ptr %8, align 4, !tbaa !4
  %98 = add nsw i32 %96, %97
  %99 = sext i32 %98 to i64
  %100 = getelementptr inbounds [9 x float], ptr %5, i64 0, i64 %99
  %101 = load float, ptr %100, align 4, !tbaa !14
  %102 = fpext float %101 to double
  %103 = call i32 (ptr, ptr, ...) @fprintf(ptr noundef %94, ptr noundef @.str.79, double noundef %102) #16
  br label %104

104:                                              ; preds = %93
  %105 = load i32, ptr %9, align 4, !tbaa !4
  %106 = add nsw i32 %105, -1
  store i32 %106, ptr %9, align 4, !tbaa !4
  br label %90, !llvm.loop !149

107:                                              ; preds = %90
  %108 = load ptr, ptr %3, align 8, !tbaa !48
  %109 = call i32 (ptr, ptr, ...) @fprintf(ptr noundef %108, ptr noundef @.str.58) #16
  br label %110

110:                                              ; preds = %107
  %111 = load i32, ptr %8, align 4, !tbaa !4
  %112 = add nsw i32 %111, 1
  store i32 %112, ptr %8, align 4, !tbaa !4
  br label %81, !llvm.loop !150

113:                                              ; preds = %81
  call void @llvm.lifetime.end.p0(i64 4, ptr %9) #16
  call void @llvm.lifetime.end.p0(i64 4, ptr %8) #16
  call void @llvm.lifetime.end.p0(i64 12, ptr %7) #16
  call void @llvm.lifetime.end.p0(i64 36, ptr %6) #16
  call void @llvm.lifetime.end.p0(i64 36, ptr %5) #16
  ret void
}