; Function Attrs: mustprogress uwtable
define internal fastcc void @_ZL9print_dirP8_IO_FILEPf(ptr noundef captures(none) %0, ptr noundef readonly captures(none) %1) unnamed_addr #0 {
  %3 = alloca [9 x float], align 16
  %4 = alloca [9 x float], align 16
  %5 = alloca [3 x float], align 4
  call void @llvm.lifetime.start.p0(i64 36, ptr nonnull %3) #17
  call void @llvm.lifetime.start.p0(i64 36, ptr nonnull %4) #17
  call void @llvm.lifetime.start.p0(i64 12, ptr nonnull %5) #17
  %6 = tail call i64 @fwrite(ptr nonnull @.str.70, i64 30, i64 1, ptr %0)
  br label %7

7:                                                ; preds = %2, %15
  %indvars.iv37 = phi i64 [ 0, %2 ], [ %indvars.iv.next38, %15 ]
  %8 = trunc i64 %indvars.iv37 to i32
  %9 = or i32 %8, 88
  %10 = tail call i32 (ptr, ptr, ...) @fprintf(ptr noundef %0, ptr noundef nonnull @.str.71, i32 noundef %9) #17
  %invariant.gep = getelementptr inbounds nuw float, ptr %1, i64 %indvars.iv37
  br label %11

11:                                               ; preds = %7, %11
  %indvars.iv = phi i64 [ 0, %7 ], [ %indvars.iv.next, %11 ]
  %.idx = mul nuw nsw i64 %indvars.iv, 12
  %gep = getelementptr inbounds nuw i8, ptr %invariant.gep, i64 %.idx
  %12 = load float, ptr %gep, align 4, !tbaa !57
  %13 = fpext float %12 to double
  %14 = tail call i32 (ptr, ptr, ...) @fprintf(ptr noundef %0, ptr noundef nonnull @.str.72, double noundef %13) #17
  %indvars.iv.next = add nuw nsw i64 %indvars.iv, 1
  %exitcond.not = icmp eq i64 %indvars.iv.next, 3
  br i1 %exitcond.not, label %15, label %11, !llvm.loop !132

15:                                               ; preds = %11
  %16 = tail call i32 (ptr, ptr, ...) @fprintf(ptr noundef %0, ptr noundef nonnull @.str.73, ptr noundef nonnull @.str.74) #17
  %indvars.iv.next38 = add nuw nsw i64 %indvars.iv37, 1
  %exitcond40.not = icmp eq i64 %indvars.iv.next38, 3
  br i1 %exitcond40.not, label %.preheader.preheader, label %7, !llvm.loop !133

.preheader.preheader:                             ; preds = %15
  call void @llvm.memcpy.p0.p0.i64(ptr noundef nonnull align 16 dereferenceable(36) %4, ptr noundef nonnull align 4 dereferenceable(36) %1, i64 36, i1 false), !tbaa !57
  call void @_Z11eigensolverPfiiiS_S_(ptr noundef nonnull %4, i32 noundef 3, i32 noundef 0, i32 noundef 3, ptr noundef nonnull %5, ptr noundef nonnull %3)
  %17 = call i64 @fwrite(ptr nonnull @.str.76, i64 28, i64 1, ptr %0)
  %18 = getelementptr inbounds nuw i8, ptr %5, i64 8
  %19 = load float, ptr %18, align 4, !tbaa !57
  %20 = fpext float %19 to double
  %21 = getelementptr inbounds nuw i8, ptr %5, i64 4
  %22 = load float, ptr %21, align 4, !tbaa !57
  %23 = fpext float %22 to double
  %24 = load float, ptr %5, align 4, !tbaa !57
  %25 = fpext float %24 to double
  %26 = call i32 (ptr, ptr, ...) @fprintf(ptr noundef %0, ptr noundef nonnull @.str.77, double noundef %20, double noundef %23, double noundef %25) #17
  br label %27

27:                                               ; preds = %.preheader.preheader, %38
  %indvars.iv47 = phi i64 [ 0, %.preheader.preheader ], [ %indvars.iv.next48, %38 ]
  %28 = trunc i64 %indvars.iv47 to i32
  %29 = or i32 %28, 88
  %30 = call i32 (ptr, ptr, ...) @fprintf(ptr noundef %0, ptr noundef nonnull @.str.78, i32 noundef %29) #17
  br label %31

31:                                               ; preds = %27, %31
  %indvars.iv44 = phi i64 [ 2, %27 ], [ %indvars.iv.next45, %31 ]
  %32 = mul nuw nsw i64 %indvars.iv44, 3
  %33 = add nuw nsw i64 %32, %indvars.iv47
  %34 = getelementptr inbounds nuw [9 x float], ptr %3, i64 0, i64 %33
  %35 = load float, ptr %34, align 4, !tbaa !57
  %36 = fpext float %35 to double
  %37 = call i32 (ptr, ptr, ...) @fprintf(ptr noundef %0, ptr noundef nonnull @.str.79, double noundef %36) #17
  %indvars.iv.next45 = add nsw i64 %indvars.iv44, -1
  %.not = icmp eq i64 %indvars.iv44, 0
  br i1 %.not, label %38, label %31, !llvm.loop !134

38:                                               ; preds = %31
  %fputc = call i32 @fputc(i32 10, ptr %0)
  %indvars.iv.next48 = add nuw nsw i64 %indvars.iv47, 1
  %exitcond50.not = icmp eq i64 %indvars.iv.next48, 3
  br i1 %exitcond50.not, label %39, label %27, !llvm.loop !135

39:                                               ; preds = %38
  call void @llvm.lifetime.end.p0(i64 12, ptr nonnull %5) #17
  call void @llvm.lifetime.end.p0(i64 36, ptr nonnull %4) #17
  call void @llvm.lifetime.end.p0(i64 36, ptr nonnull %3) #17
  ret void
}